Certificate:
    Data:
        Version: 3 (0x2)
        Serial Number: 187 (0xbb)
    Signature Algorithm: sha256WithRSAEncryption
        Issuer: C=FR, ST=Ile de France, L=Paris, O=Radioline, OU=sAPI, CN=radioline.fr/emailAddress=tech@radioline.fr
        Validity
            Not Before: Apr 24 10:32:36 2018 GMT
            Not After : Jul  7 10:32:36 2023 GMT
        Subject: C=FR, ST=Ile de France, L=Paris, O=Radioline, OU=sAPI, CN=79_0/emailAddress=tech@radioline.fr
        Subject Public Key Info:
            Public Key Algorithm: rsaEncryption
                Public-Key: (2048 bit)
                Modulus:
                    00:cb:74:3b:d9:ca:30:47:0f:6e:f7:49:61:f8:8a:
                    fe:0c:6c:bd:47:26:e6:42:07:12:95:48:fe:73:95:
                    32:77:46:19:1b:13:85:f7:e1:da:17:e5:c3:3e:6c:
                    f9:95:63:16:24:01:bb:a0:9b:b9:ea:b7:ee:b3:41:
                    b3:30:7b:63:bc:da:d8:86:88:eb:62:02:52:65:82:
                    94:81:0c:9b:b6:9e:e2:ef:4c:6d:62:a9:4a:c0:6f:
                    f8:7a:9a:06:e0:39:c4:1b:aa:d3:b8:3e:ad:de:e0:
                    85:51:ab:a3:c7:64:e4:53:9f:2f:99:82:23:ef:98:
                    d3:c5:38:33:dc:5b:c3:a1:a3:60:85:88:8f:57:78:
                    55:0a:7e:d5:c0:9a:d9:da:40:65:e6:f1:50:34:b5:
                    87:f2:0c:df:bc:8e:2b:4c:e7:36:07:e6:c2:fc:c4:
                    a7:f4:44:b9:17:05:1c:96:8b:13:81:be:c1:a5:57:
                    2b:cf:64:1c:9d:96:19:e2:1b:74:e5:51:96:e6:d6:
                    50:e4:35:ad:8f:5c:20:2e:a7:0d:cf:a3:ce:42:d5:
                    9b:bf:a1:eb:6b:ed:0f:84:28:28:e7:f2:56:d3:99:
                    df:f7:5b:5f:50:41:17:29:e8:02:c6:64:ba:56:3b:
                    43:15:b5:f3:73:51:51:92:b6:29:cc:c0:0e:76:be:
                    49:51
                Exponent: 65537 (0x10001)
        X509v3 extensions:
            X509v3 Basic Constraints: 
                CA:FALSE
            X509v3 Subject Key Identifier: 
                C0:9E:8C:7E:DE:8D:05:99:36:15:C8:6A:43:B2:34:34:E9:74:F8:93
            X509v3 Authority Key Identifier: 
                keyid:1A:81:89:31:93:04:A4:61:F1:A2:B1:78:3F:F9:60:09:43:69:EA:AC
                DirName:/C=FR/ST=Ile de France/L=Paris/O=Radioline/OU=sAPI/CN=radioline.fr/emailAddress=tech@radioline.fr
                serial:92:02:93:A1:7B:D9:8F:6B

            X509v3 Subject Alternative Name: 
                email:tech@radioline.fr
            X509v3 Issuer Alternative Name: 
                <EMPTY>

    Signature Algorithm: sha256WithRSAEncryption
         d4:64:8d:ba:58:a1:2d:37:ff:91:70:91:29:ee:36:f4:4f:d6:
         e4:31:3c:b5:aa:9b:fd:1a:f5:9c:31:c6:b9:1e:1e:c8:ff:3f:
         de:24:8e:2a:86:cf:ba:6c:79:07:2c:d8:53:30:d3:bd:61:0e:
         a9:a3:f3:07:ed:16:2a:3f:38:9a:69:c1:36:b7:18:58:11:71:
         5f:11:bb:73:b4:7f:ea:5d:86:ba:a2:c9:79:fb:83:fd:d9:1b:
         23:36:86:a3:7a:7f:95:06:4d:f3:2c:31:e7:6b:74:30:2d:27:
         be:05:92:eb:39:36:41:82:58:04:56:25:7f:80:9d:ac:0d:8b:
         14:db:32:53:ab:e3:87:6c:4a:d8:1b:12:01:1b:17:3b:a0:a5:
         3b:4c:3e:3f:0a:7b:78:5b:37:2b:15:8f:b2:e9:a3:e9:27:1b:
         27:78:ab:89:d0:c9:5f:f7:aa:63:de:72:df:6a:fb:18:2b:37:
         92:73:2e:52:63:3d:67:fb:7c:6f:85:3c:26:ad:c0:a3:30:18:
         82:9d:f5:fa:9d:4b:f6:f4:69:6d:f2:fa:20:64:85:bd:a7:b3:
         13:e0:38:0e:d2:39:3a:13:96:8e:56:eb:a8:9a:58:1d:04:c4:
         60:24:d2:4b:3f:d9:90:65:c9:be:06:9c:f0:ea:b6:2e:bf:dc:
         ab:2a:12:f2
-----BEGIN CERTIFICATE-----
MIIEujCCA6KgAwIBAgICALswDQYJKoZIhvcNAQELBQAwgZExCzAJBgNVBAYTAkZS
MRYwFAYDVQQIEw1JbGUgZGUgRnJhbmNlMQ4wDAYDVQQHEwVQYXJpczESMBAGA1UE
ChMJUmFkaW9saW5lMQ0wCwYDVQQLEwRzQVBJMRUwEwYDVQQDEwxyYWRpb2xpbmUu
ZnIxIDAeBgkqhkiG9w0BCQEWEXRlY2hAcmFkaW9saW5lLmZyMB4XDTE4MDQyNDEw
MzIzNloXDTIzMDcwNzEwMzIzNlowgYkxCzAJBgNVBAYTAkZSMRYwFAYDVQQIEw1J
bGUgZGUgRnJhbmNlMQ4wDAYDVQQHEwVQYXJpczESMBAGA1UEChMJUmFkaW9saW5l
MQ0wCwYDVQQLEwRzQVBJMQ0wCwYDVQQDFAQ3OV8wMSAwHgYJKoZIhvcNAQkBFhF0
ZWNoQHJhZGlvbGluZS5mcjCCASIwDQYJKoZIhvcNAQEBBQADggEPADCCAQoCggEB
AMt0O9nKMEcPbvdJYfiK/gxsvUcm5kIHEpVI/nOVMndGGRsThffh2hflwz5s+ZVj
FiQBu6Cbueq37rNBszB7Y7za2IaI62ICUmWClIEMm7ae4u9MbWKpSsBv+HqaBuA5
xBuq07g+rd7ghVGro8dk5FOfL5mCI++Y08U4M9xbw6GjYIWIj1d4VQp+1cCa2dpA
ZebxUDS1h/IM37yOK0znNgfmwvzEp/REuRcFHJaLE4G+waVXK89kHJ2WGeIbdOVR
lubWUOQ1rY9cIC6nDc+jzkLVm7+h62vtD4QoKOfyVtOZ3/dbX1BBFynoAsZkulY7
QxW183NRUZK2KczADna+SVECAwEAAaOCASAwggEcMAkGA1UdEwQCMAAwHQYDVR0O
BBYEFMCejH7ejQWZNhXIakOyNDTpdPiTMIHGBgNVHSMEgb4wgbuAFBqBiTGTBKRh
8aKxeD/5YAlDaeqsoYGXpIGUMIGRMQswCQYDVQQGEwJGUjEWMBQGA1UECBMNSWxl
IGRlIEZyYW5jZTEOMAwGA1UEBxMFUGFyaXMxEjAQBgNVBAoTCVJhZGlvbGluZTEN
MAsGA1UECxMEc0FQSTEVMBMGA1UEAxMMcmFkaW9saW5lLmZyMSAwHgYJKoZIhvcN
AQkBFhF0ZWNoQHJhZGlvbGluZS5mcoIJAJICk6F72Y9rMBwGA1UdEQQVMBOBEXRl
Y2hAcmFkaW9saW5lLmZyMAkGA1UdEgQCMAAwDQYJKoZIhvcNAQELBQADggEBANRk
jbpYoS03/5FwkSnuNvRP1uQxPLWqm/0a9ZwxxrkeHsj/P94kjiqGz7pseQcs2FMw
071hDqmj8wftFio/OJppwTa3GFgRcV8Ru3O0f+pdhrqiyXn7g/3ZGyM2hqN6f5UG
TfMsMedrdDAtJ74Fkus5NkGCWARWJX+AnawNixTbMlOr44dsStgbEgEbFzugpTtM
Pj8Ke3hbNysVj7Lpo+knGyd4q4nQyV/3qmPect9q+xgrN5JzLlJjPWf7fG+FPCat
wKMwGIKd9fqdS/b0aW3y+iBkhb2nsxPgOA7SOToTlo5W66iaWB0ExGAk0ks/2ZBl
yb4GnPDqti6/3KsqEvI=
-----END CERTIFICATE-----
